target datalayout = "e-m:e-p270:32:32-p271:32:32-p272:64:64-i64:64-i128:128-f80:128-n8:16:32:64-S128"
target triple = "x86_64-pc-linux-gnu"

; Function Attrs: inlinehint nounwind uwtable
define internal i32 @Abc_LitNotCond(i32 noundef %0, i32 noundef %1) #2 {
  %3 = alloca i32, align 4
  %4 = alloca i32, align 4
  store i32 %0, ptr %3, align 4, !tbaa !10
  store i32 %1, ptr %4, align 4, !tbaa !10
  %5 = load i32, ptr %3, align 4, !tbaa !10
  %6 = load i32, ptr %4, align 4, !tbaa !10
  %7 = icmp sgt i32 %6, 0
  %8 = zext i1 %7 to i32
  %9 = xor i32 %5, %8
  ret i32 %9
}

; Function Attrs: nounwind uwtable
define i32 @Gia_ManFindGateGate(ptr noundef %0, ptr noundef %1, i32 noundef %2, ptr noundef %3, ptr noundef %4, ptr noundef %5, ptr noundef %6) #0 {
  %8 = alloca i32, align 4
  %9 = alloca ptr, align 8
  %10 = alloca ptr, align 8
  %11 = alloca i32, align 4
  %12 = alloca ptr, align 8
  %13 = alloca ptr, align 8
  %14 = alloca ptr, align 8
  %15 = alloca ptr, align 8
  %16 = alloca i32, align 4
  %17 = alloca i32, align 4
  %18 = alloca i32, align 4
  store ptr %0, ptr %9, align 8, !tbaa !150
  store ptr %1, ptr %10, align 8, !tbaa !80
  store i32 %2, ptr %11, align 4, !tbaa !10
  store ptr %3, ptr %12, align 8, !tbaa !125
  store ptr %4, ptr %13, align 8, !tbaa !125
  store ptr %5, ptr %14, align 8, !tbaa !76
  store ptr %6, ptr %15, align 8, !tbaa !76
  call void @llvm.lifetime.start.p0(i64 4, ptr %16) #14
  call void @llvm.lifetime.start.p0(i64 4, ptr %17) #14
  store i32 0, ptr %16, align 4, !tbaa !10
  br label %19

19:                                               ; preds = %58, %7
  %20 = load i32, ptr %16, align 4, !tbaa !10
  %21 = icmp slt i32 %20, 2
  br i1 %21, label %22, label %61

22:                                               ; preds = %19
  %23 = load ptr, ptr %9, align 8, !tbaa !150
  %24 = load i32, ptr %16, align 4, !tbaa !10
  %25 = sext i32 %24 to i64
  %26 = getelementptr inbounds ptr, ptr %23, i64 %25
  %27 = load ptr, ptr %26, align 8, !tbaa !76
  %28 = load ptr, ptr %9, align 8, !tbaa !150
  %29 = load i32, ptr %16, align 4, !tbaa !10
  %30 = icmp ne i32 %29, 0
  %31 = xor i1 %30, true
  %32 = zext i1 %31 to i32
  %33 = sext i32 %32 to i64
  %34 = getelementptr inbounds ptr, ptr %28, i64 %33
  %35 = load ptr, ptr %34, align 8, !tbaa !76
  %36 = load ptr, ptr %10, align 8, !tbaa !80
  %37 = load i32, ptr %11, align 4, !tbaa !10
  %38 = load ptr, ptr %12, align 8, !tbaa !125
  %39 = load i32, ptr %16, align 4, !tbaa !10
  %40 = sext i32 %39 to i64
  %41 = getelementptr inbounds ptr, ptr %38, i64 %40
  %42 = load ptr, ptr %41, align 8, !tbaa !12
  %43 = load ptr, ptr %13, align 8, !tbaa !125
  %44 = load i32, ptr %16, align 4, !tbaa !10
  %45 = sext i32 %44 to i64
  %46 = getelementptr inbounds ptr, ptr %43, i64 %45
  %47 = load ptr, ptr %46, align 8, !tbaa !12
  %48 = load ptr, ptr %14, align 8, !tbaa !76
  %49 = load ptr, ptr %15, align 8, !tbaa !76
  %50 = call i32 @Gia_ManFindGateGateInt(ptr noundef %27, ptr noundef %35, ptr noundef %36, i32 noundef %37, ptr noundef %42, ptr noundef %47, ptr noundef %48, ptr noundef %49)
  store i32 %50, ptr %17, align 4, !tbaa !10
  %51 = load i32, ptr %17, align 4, !tbaa !10
  %52 = icmp sge i32 %51, 0
  br i1 %52, label %53, label %57

53:                                               ; preds = %22
  %54 = load i32, ptr %17, align 4, !tbaa !10
  %55 = load i32, ptr %16, align 4, !tbaa !10
  %56 = call i32 @Abc_LitNotCond(i32 noundef %54, i32 noundef %55)
  store i32 %56, ptr %8, align 4
  store i32 1, ptr %18, align 4
  br label %62

57:                                               ; preds = %22
  br label %58

58:                                               ; preds = %57
  %59 = load i32, ptr %16, align 4, !tbaa !10
  %60 = add nsw i32 %59, 1
  store i32 %60, ptr %16, align 4, !tbaa !10
  br label %19, !llvm.loop !184

61:                                               ; preds = %19
  store i32 -1, ptr %8, align 4
  store i32 1, ptr %18, align 4
  br label %62

62:                                               ; preds = %61, %53
  call void @llvm.lifetime.end.p0(i64 4, ptr %17) #14
  call void @llvm.lifetime.end.p0(i64 4, ptr %16) #14
  %63 = load i32, ptr %8, align 4
  ret i32 %63
}