; Function Attrs: nofree norecurse nosync nounwind memory(readwrite, inaccessiblemem: none) uwtable
define range(i32 -1, -2147483648) i32 @Gia_ManFindGateGate(ptr noundef readonly captures(none) %0, ptr noundef readonly captures(none) %1, i32 noundef %2, ptr noundef readonly captures(none) %3, ptr noundef readonly captures(none) %4, ptr noundef captures(none) %5, ptr noundef captures(none) %6) local_unnamed_addr #12 {
  %8 = getelementptr inbounds nuw i8, ptr %0, i64 8
  %9 = load ptr, ptr %8, align 8, !tbaa !78
  %10 = load ptr, ptr %3, align 8, !tbaa !69
  %11 = load ptr, ptr %4, align 8, !tbaa !69
  %12 = tail call i32 @Gia_ManFindGateGateInt(ptr poison, ptr noundef %9, ptr noundef %1, i32 noundef %2, ptr noundef %10, ptr noundef %11, ptr noundef %5, ptr noundef %6)
  %13 = icmp sgt i32 %12, -1
  br i1 %13, label %._crit_edge, label %.lr.ph

.lr.ph:                                           ; preds = %7
  %14 = load ptr, ptr %0, align 8, !tbaa !78
  %15 = getelementptr inbounds nuw i8, ptr %3, i64 8
  %16 = load ptr, ptr %15, align 8, !tbaa !69
  %17 = getelementptr inbounds nuw i8, ptr %4, i64 8
  %18 = load ptr, ptr %17, align 8, !tbaa !69
  %19 = tail call i32 @Gia_ManFindGateGateInt(ptr poison, ptr noundef %14, ptr noundef %1, i32 noundef %2, ptr noundef %16, ptr noundef %18, ptr noundef %5, ptr noundef %6)
  %20 = icmp sgt i32 %19, -1
  br i1 %20, label %._crit_edge, label %.loopexit, !llvm.loop !162

._crit_edge:                                      ; preds = %.lr.ph, %7
  %.lcssa27 = phi i32 [ 0, %7 ], [ 1, %.lr.ph ]
  %.lcssa = phi i32 [ %12, %7 ], [ %19, %.lr.ph ]
  %21 = xor i32 %.lcssa, %.lcssa27
  br label %.loopexit

.loopexit:                                        ; preds = %.lr.ph, %._crit_edge
  %.0 = phi i32 [ %21, %._crit_edge ], [ -1, %.lr.ph ]
  ret i32 %.0
}